; Function Attrs: nounwind uwtable
define hidden range(i32 -4, 1) i32 @ma_peak2_init(ptr noundef captures(address_is_null) %0, ptr noundef readonly captures(address_is_null) %1, ptr noundef captures(address_is_null) %2) local_unnamed_addr #7 {
  %4 = getelementptr inbounds nuw i8, ptr %0, i64 32
  %5 = load double, ptr %4, align 8, !noalias !109
  %6 = fmul double %5, 0x401921FB54442D18
  %7 = getelementptr inbounds nuw i8, ptr %0, i64 8
  %8 = load i32, ptr %7, align 8, !noalias !109
  %9 = uitofp i32 %8 to double
  %10 = fdiv double %6, %9
  %11 = tail call double @llvm.fabs.f64(double %10)
  %12 = fcmp oeq double %11, 0x7FF0000000000000
  br i1 %12, label %cdce.call, label %cdce.end.i, !prof !11

cdce.call:                                        ; preds = %3
  %13 = tail call double @sin(double noundef %10) #72, !noalias !109
  br label %cdce.end.i

cdce.end.i:                                       ; preds = %cdce.call, %3
  %14 = fsub double 0x3FF921FB54442D18, %10
  %15 = tail call double @llvm.fabs.f64(double %14)
  %16 = fcmp oeq double %15, 0x7FF0000000000000
  br i1 %16, label %cdce.call32, label %cdce.end10.i, !prof !11

cdce.call32:                                      ; preds = %cdce.end.i
  %17 = tail call double @sin(double noundef %14) #72, !noalias !109
  br label %cdce.end10.i

cdce.end10.i:                                     ; preds = %cdce.call32, %cdce.end.i
  %18 = getelementptr inbounds nuw i8, ptr %0, i64 16
  %19 = load double, ptr %18, align 8, !noalias !109
  %20 = fdiv double %19, 4.000000e+01
  %21 = fcmp ogt double %20, 1.270000e+02
  br i1 %21, label %cdce.call34, label %cdce.end12.i, !prof !11

cdce.call34:                                      ; preds = %cdce.end10.i
  %22 = tail call double @pow(double noundef 1.000000e+01, double noundef %20) #72, !noalias !109
  br label %cdce.end12.i

cdce.end12.i:                                     ; preds = %cdce.call34, %cdce.end10.i
  %23 = getelementptr inbounds nuw i8, ptr %0, i64 4
  %24 = load i32, ptr %23, align 4, !noalias !109
  %25 = icmp eq i32 %24, 0
  br i1 %25, label %ma_peak2_get_heap_size.exit, label %26

26:                                               ; preds = %cdce.end12.i
  %27 = zext i32 %24 to i64
  %28 = shl nuw nsw i64 %27, 3
  %.not.i = icmp eq ptr %1, null
  br i1 %.not.i, label %35, label %29

29:                                               ; preds = %26
  %30 = getelementptr inbounds nuw i8, ptr %1, i64 8
  %31 = load ptr, ptr %30, align 8
  %.not8.i = icmp eq ptr %31, null
  br i1 %.not8.i, label %ma_peak2_get_heap_size.exit, label %32

32:                                               ; preds = %29
  %33 = load ptr, ptr %1, align 8
  %34 = tail call ptr %31(i64 noundef %28, ptr noundef %33) #72
  br label %ma_malloc.exit

35:                                               ; preds = %26
  %36 = tail call noalias noundef ptr @malloc(i64 noundef %28) #85
  br label %ma_malloc.exit

ma_malloc.exit:                                   ; preds = %32, %35
  %.0.i = phi ptr [ %34, %32 ], [ %36, %35 ]
  %37 = icmp eq ptr %.0.i, null
  br i1 %37, label %ma_peak2_get_heap_size.exit, label %38

38:                                               ; preds = %ma_malloc.exit
  %39 = tail call i32 @ma_peak2_init_preallocated(ptr noundef nonnull %0, ptr noundef nonnull %.0.i, ptr noundef %2)
  %.not19 = icmp eq i32 %39, 0
  br i1 %.not19, label %47, label %40

40:                                               ; preds = %38
  br i1 %.not.i, label %46, label %41

41:                                               ; preds = %40
  %42 = getelementptr inbounds nuw i8, ptr %1, i64 24
  %43 = load ptr, ptr %42, align 8
  %.not9.i = icmp eq ptr %43, null
  br i1 %.not9.i, label %ma_peak2_get_heap_size.exit, label %44

44:                                               ; preds = %41
  %45 = load ptr, ptr %1, align 8
  tail call void %43(ptr noundef nonnull %.0.i, ptr noundef %45) #72
  br label %ma_peak2_get_heap_size.exit

46:                                               ; preds = %40
  tail call void @free(ptr noundef nonnull %.0.i) #72
  br label %ma_peak2_get_heap_size.exit

47:                                               ; preds = %38
  %48 = getelementptr inbounds nuw i8, ptr %2, i64 56
  store i32 1, ptr %48, align 8
  br label %ma_peak2_get_heap_size.exit

ma_peak2_get_heap_size.exit:                      ; preds = %29, %46, %44, %41, %cdce.end12.i, %ma_malloc.exit, %47
  %.013 = phi i32 [ 0, %47 ], [ -4, %ma_malloc.exit ], [ -2, %cdce.end12.i ], [ %39, %41 ], [ %39, %44 ], [ %39, %46 ], [ -4, %29 ]
  ret i32 %.013
}